target datalayout = "e-m:e-p270:32:32-p271:32:32-p272:64:64-i64:64-i128:128-f80:128-n8:16:32:64-S128"
target triple = "x86_64-pc-linux-gnu"

%"class.icu_77::number::impl::DecNum" = type { %"class.icu_77::MaybeStackHeaderAndArray", %struct.decContext, [4 x i8] }
%"class.icu_77::MaybeStackHeaderAndArray" = type <{ ptr, i32, i8, [3 x i8], %struct.decNumber, [34 x i8], [2 x i8] }>
%struct.decNumber = type { i32, i32, i8, [1 x i8] }
%struct.decContext = type { i32, i32, i32, i32, i32, i32, i8 }
%"class.icu_77::MaybeStackArray.0" = type <{ ptr, i32, i8, [30 x i8], [5 x i8] }>

; Function Attrs: mustprogress uwtable
define linkonce_odr void @_ZN6icu_7715MaybeStackArrayIcLi30EE12releaseArrayEv(ptr noundef nonnull align 8 dereferenceable(43) %0) #1 comdat align 2 {
  %2 = alloca ptr, align 8
  store ptr %0, ptr %2, align 8, !tbaa !79
  %3 = load ptr, ptr %2, align 8
  %4 = getelementptr inbounds nuw %"class.icu_77::MaybeStackArray.0", ptr %3, i32 0, i32 2
  %5 = load i8, ptr %4, align 4, !tbaa !85
  %6 = icmp ne i8 %5, 0
  br i1 %6, label %7, label %10

7:                                                ; preds = %1
  %8 = getelementptr inbounds nuw %"class.icu_77::MaybeStackArray.0", ptr %3, i32 0, i32 0
  %9 = load ptr, ptr %8, align 8, !tbaa !83
  call void @uprv_free_77(ptr noundef %9)
  br label %10

10:                                               ; preds = %7, %1
  ret void
}

; Function Attrs: inlinehint mustprogress uwtable
define linkonce_odr noundef ptr @_ZN6icu_7715MaybeStackArrayIcLi30EE6resizeEii(ptr noundef nonnull align 8 dereferenceable(43) %0, i32 noundef %1, i32 noundef %2) #3 comdat align 2 {
  %4 = alloca ptr, align 8
  %5 = alloca ptr, align 8
  %6 = alloca i32, align 4
  %7 = alloca i32, align 4
  %8 = alloca ptr, align 8
  store ptr %0, ptr %5, align 8, !tbaa !79
  store i32 %1, ptr %6, align 4, !tbaa !14
  store i32 %2, ptr %7, align 4, !tbaa !14
  %9 = load ptr, ptr %5, align 8
  %10 = load i32, ptr %6, align 4, !tbaa !14
  %11 = icmp sgt i32 %10, 0
  br i1 %11, label %12, label %54

12:                                               ; preds = %3
  call void @llvm.lifetime.start.p0(i64 8, ptr %8) #12
  %13 = load i32, ptr %6, align 4, !tbaa !14
  %14 = sext i32 %13 to i64
  %15 = mul i64 %14, 1
  %16 = call noalias ptr @uprv_malloc_77(i64 noundef %15) #13
  store ptr %16, ptr %8, align 8, !tbaa !17
  %17 = load ptr, ptr %8, align 8, !tbaa !17
  %18 = icmp ne ptr %17, null
  br i1 %18, label %19, label %52

19:                                               ; preds = %12
  %20 = load i32, ptr %7, align 4, !tbaa !14
  %21 = icmp sgt i32 %20, 0
  br i1 %21, label %22, label %46

22:                                               ; preds = %19
  %23 = load i32, ptr %7, align 4, !tbaa !14
  %24 = getelementptr inbounds nuw %"class.icu_77::MaybeStackArray.0", ptr %9, i32 0, i32 1
  %25 = load i32, ptr %24, align 8, !tbaa !81
  %26 = icmp sgt i32 %23, %25
  br i1 %26, label %27, label %30

27:                                               ; preds = %22
  %28 = getelementptr inbounds nuw %"class.icu_77::MaybeStackArray.0", ptr %9, i32 0, i32 1
  %29 = load i32, ptr %28, align 8, !tbaa !81
  store i32 %29, ptr %7, align 4, !tbaa !14
  br label %30

30:                                               ; preds = %27, %22
  %31 = load i32, ptr %7, align 4, !tbaa !14
  %32 = load i32, ptr %6, align 4, !tbaa !14
  %33 = icmp sgt i32 %31, %32
  br i1 %33, label %34, label %36

34:                                               ; preds = %30
  %35 = load i32, ptr %6, align 4, !tbaa !14
  store i32 %35, ptr %7, align 4, !tbaa !14
  br label %36

36:                                               ; preds = %34, %30
  br label %37

37:                                               ; preds = %36
  %38 = load ptr, ptr %8, align 8, !tbaa !17
  %39 = getelementptr inbounds nuw %"class.icu_77::MaybeStackArray.0", ptr %9, i32 0, i32 0
  %40 = load ptr, ptr %39, align 8, !tbaa !83
  %41 = load i32, ptr %7, align 4, !tbaa !14
  %42 = sext i32 %41 to i64
  %43 = mul i64 %42, 1
  call void @llvm.memcpy.p0.p0.i64(ptr align 1 %38, ptr align 1 %40, i64 %43, i1 false)
  br label %44

44:                                               ; preds = %37
  br label %45

45:                                               ; preds = %44
  br label %46

46:                                               ; preds = %45, %19
  call void @_ZN6icu_7715MaybeStackArrayIcLi30EE12releaseArrayEv(ptr noundef nonnull align 8 dereferenceable(43) %9)
  %47 = load ptr, ptr %8, align 8, !tbaa !17
  %48 = getelementptr inbounds nuw %"class.icu_77::MaybeStackArray.0", ptr %9, i32 0, i32 0
  store ptr %47, ptr %48, align 8, !tbaa !83
  %49 = load i32, ptr %6, align 4, !tbaa !14
  %50 = getelementptr inbounds nuw %"class.icu_77::MaybeStackArray.0", ptr %9, i32 0, i32 1
  store i32 %49, ptr %50, align 8, !tbaa !81
  %51 = getelementptr inbounds nuw %"class.icu_77::MaybeStackArray.0", ptr %9, i32 0, i32 2
  store i8 1, ptr %51, align 4, !tbaa !85
  br label %52

52:                                               ; preds = %46, %12
  %53 = load ptr, ptr %8, align 8, !tbaa !17
  store ptr %53, ptr %4, align 8
  call void @llvm.lifetime.end.p0(i64 8, ptr %8) #12
  br label %55

54:                                               ; preds = %3
  store ptr null, ptr %4, align 8
  br label %55

55:                                               ; preds = %54, %52
  %56 = load ptr, ptr %4, align 8
  ret ptr %56
}

; Function Attrs: mustprogress nounwind uwtable
define linkonce_odr void @_ZN6icu_7715MaybeStackArrayIcLi30EEC2Ev(ptr noundef nonnull align 8 dereferenceable(43) %0) unnamed_addr #0 comdat align 2 {
  %2 = alloca ptr, align 8
  store ptr %0, ptr %2, align 8, !tbaa !79
  %3 = load ptr, ptr %2, align 8
  %4 = getelementptr inbounds nuw %"class.icu_77::MaybeStackArray.0", ptr %3, i32 0, i32 0
  %5 = getelementptr inbounds nuw %"class.icu_77::MaybeStackArray.0", ptr %3, i32 0, i32 3
  %6 = getelementptr inbounds [30 x i8], ptr %5, i64 0, i64 0
  store ptr %6, ptr %4, align 8, !tbaa !83
  %7 = getelementptr inbounds nuw %"class.icu_77::MaybeStackArray.0", ptr %3, i32 0, i32 1
  store i32 30, ptr %7, align 8, !tbaa !81
  %8 = getelementptr inbounds nuw %"class.icu_77::MaybeStackArray.0", ptr %3, i32 0, i32 2
  store i8 0, ptr %8, align 4, !tbaa !85
  ret void
}

; Function Attrs: mustprogress nounwind uwtable
define linkonce_odr noundef ptr @_ZNK6icu_7715MaybeStackArrayIcLi30EE8getAliasEv(ptr noundef nonnull align 8 dereferenceable(43) %0) #0 comdat align 2 {
  %2 = alloca ptr, align 8
  store ptr %0, ptr %2, align 8, !tbaa !79
  %3 = load ptr, ptr %2, align 8
  %4 = getelementptr inbounds nuw %"class.icu_77::MaybeStackArray.0", ptr %3, i32 0, i32 0
  %5 = load ptr, ptr %4, align 8, !tbaa !83
  ret ptr %5
}

; Function Attrs: mustprogress nounwind uwtable
define linkonce_odr noundef ptr @_ZNK6icu_7724MaybeStackHeaderAndArrayI9decNumbercLi34EEcvPS1_Ev(ptr noundef nonnull align 8 dereferenceable(62) %0) #0 comdat align 2 {
  %2 = alloca ptr, align 8
  store ptr %0, ptr %2, align 8, !tbaa !48
  %3 = load ptr, ptr %2, align 8
  %4 = getelementptr inbounds nuw %"class.icu_77::MaybeStackHeaderAndArray", ptr %3, i32 0, i32 0
  %5 = load ptr, ptr %4, align 8, !tbaa !50
  ret ptr %5
}

; Function Attrs: mustprogress uwtable
define linkonce_odr void @_ZN6icu_7715MaybeStackArrayIcLi30EEC2Ei10UErrorCode(ptr noundef nonnull align 8 dereferenceable(43) %0, i32 noundef %1, i32 noundef %2) unnamed_addr #1 comdat align 2 personality ptr @__gxx_personality_v0 {
  %4 = alloca ptr, align 8
  %5 = alloca i32, align 4
  %6 = alloca i32, align 4
  %7 = alloca ptr, align 8
  %8 = alloca i32, align 4
  store ptr %0, ptr %4, align 8, !tbaa !79
  store i32 %1, ptr %5, align 4, !tbaa !14
  store i32 %2, ptr %6, align 4, !tbaa !15
  %9 = load ptr, ptr %4, align 8
  call void @_ZN6icu_7715MaybeStackArrayIcLi30EEC2Ev(ptr noundef nonnull align 8 dereferenceable(43) %9)
  %10 = load i32, ptr %6, align 4, !tbaa !15
  %11 = call noundef signext i8 @_ZL9U_FAILURE10UErrorCode(i32 noundef %10)
  %12 = icmp ne i8 %11, 0
  br i1 %12, label %13, label %14

13:                                               ; preds = %3
  br label %30

14:                                               ; preds = %3
  %15 = getelementptr inbounds nuw %"class.icu_77::MaybeStackArray.0", ptr %9, i32 0, i32 1
  %16 = load i32, ptr %15, align 8, !tbaa !81
  %17 = load i32, ptr %5, align 4, !tbaa !14
  %18 = icmp slt i32 %16, %17
  br i1 %18, label %19, label %30

19:                                               ; preds = %14
  %20 = load i32, ptr %5, align 4, !tbaa !14
  %21 = invoke noundef ptr @_ZN6icu_7715MaybeStackArrayIcLi30EE6resizeEii(ptr noundef nonnull align 8 dereferenceable(43) %9, i32 noundef %20, i32 noundef 0)
          to label %22 unwind label %25

22:                                               ; preds = %19
  %23 = icmp eq ptr %21, null
  br i1 %23, label %24, label %29

24:                                               ; preds = %22
  store i32 7, ptr %6, align 4, !tbaa !15
  br label %29

25:                                               ; preds = %19
  %26 = landingpad { ptr, i32 }
          cleanup
  %27 = extractvalue { ptr, i32 } %26, 0
  store ptr %27, ptr %7, align 8
  %28 = extractvalue { ptr, i32 } %26, 1
  store i32 %28, ptr %8, align 4
  call void @_ZN6icu_7715MaybeStackArrayIcLi30EED2Ev(ptr noundef nonnull align 8 dereferenceable(43) %9) #12
  br label %31

29:                                               ; preds = %24, %22
  br label %30

30:                                               ; preds = %13, %29, %14
  ret void

31:                                               ; preds = %25
  %32 = load ptr, ptr %7, align 8
  %33 = load i32, ptr %8, align 4
  %34 = insertvalue { ptr, i32 } poison, ptr %32, 0
  %35 = insertvalue { ptr, i32 } %34, i32 %33, 1
  resume { ptr, i32 } %35
}

; Function Attrs: mustprogress nounwind uwtable
define linkonce_odr noundef ptr @_ZNK6icu_7724MaybeStackHeaderAndArrayI9decNumbercLi34EE8getAliasEv(ptr noundef nonnull align 8 dereferenceable(62) %0) #0 comdat align 2 {
  %2 = alloca ptr, align 8
  store ptr %0, ptr %2, align 8, !tbaa !48
  %3 = load ptr, ptr %2, align 8
  %4 = getelementptr inbounds nuw %"class.icu_77::MaybeStackHeaderAndArray", ptr %3, i32 0, i32 0
  %5 = load ptr, ptr %4, align 8, !tbaa !50
  ret ptr %5
}

; Function Attrs: inlinehint mustprogress nounwind uwtable
define internal noundef signext i8 @_ZL9U_FAILURE10UErrorCode(i32 noundef %0) #2 {
  %2 = alloca i32, align 4
  store i32 %0, ptr %2, align 4, !tbaa !15
  %3 = load i32, ptr %2, align 4, !tbaa !15
  %4 = icmp sgt i32 %3, 0
  %5 = zext i1 %4 to i8
  ret i8 %5
}

; Function Attrs: mustprogress uwtable
define void @_ZNK6icu_776number4impl6DecNum8toStringERNS_8ByteSinkER10UErrorCode(ptr noundef nonnull align 8 dereferenceable(92) %0, ptr noundef nonnull align 8 dereferenceable(8) %1, ptr noundef nonnull align 4 dereferenceable(4) %2) #1 align 2 personality ptr @__gxx_personality_v0 {
  %4 = alloca ptr, align 8
  %5 = alloca ptr, align 8
  %6 = alloca ptr, align 8
  %7 = alloca i32, align 4
  %8 = alloca %"class.icu_77::MaybeStackArray.0", align 8
  %9 = alloca ptr, align 8
  %10 = alloca i32, align 4
  %11 = alloca i32, align 4
  store ptr %0, ptr %4, align 8, !tbaa !40
  store ptr %1, ptr %5, align 8, !tbaa !75
  store ptr %2, ptr %6, align 8, !tbaa !22
  %12 = load ptr, ptr %4, align 8
  %13 = load ptr, ptr %6, align 8, !tbaa !22
  %14 = load i32, ptr %13, align 4, !tbaa !15
  %15 = call noundef signext i8 @_ZL9U_FAILURE10UErrorCode(i32 noundef %14)
  %16 = icmp ne i8 %15, 0
  br i1 %16, label %17, label %18

17:                                               ; preds = %3
  br label %58

18:                                               ; preds = %3
  call void @llvm.lifetime.start.p0(i64 4, ptr %7) #12
  %19 = getelementptr inbounds nuw %"class.icu_77::number::impl::DecNum", ptr %12, i32 0, i32 0
  %20 = call noundef ptr @_ZNK6icu_7724MaybeStackHeaderAndArrayI9decNumbercLi34EE8getAliasEv(ptr noundef nonnull align 8 dereferenceable(62) %19)
  %21 = getelementptr inbounds nuw %struct.decNumber, ptr %20, i32 0, i32 0
  %22 = load i32, ptr %21, align 4, !tbaa !72
  %23 = add nsw i32 %22, 14
  store i32 %23, ptr %7, align 4, !tbaa !14
  call void @llvm.lifetime.start.p0(i64 48, ptr %8) #12
  %24 = load i32, ptr %7, align 4, !tbaa !14
  %25 = load ptr, ptr %6, align 8, !tbaa !22
  %26 = load i32, ptr %25, align 4, !tbaa !15
  call void @_ZN6icu_7715MaybeStackArrayIcLi30EEC2Ei10UErrorCode(ptr noundef nonnull align 8 dereferenceable(43) %8, i32 noundef %24, i32 noundef %26)
  %27 = load ptr, ptr %6, align 8, !tbaa !22
  %28 = load i32, ptr %27, align 4, !tbaa !15
  %29 = invoke noundef signext i8 @_ZL9U_FAILURE10UErrorCode(i32 noundef %28)
          to label %30 unwind label %33

30:                                               ; preds = %18
  %31 = icmp ne i8 %29, 0
  br i1 %31, label %32, label %37

32:                                               ; preds = %30
  store i32 1, ptr %11, align 4
  br label %56

33:                                               ; preds = %49, %47, %44, %42, %40, %37, %18
  %34 = landingpad { ptr, i32 }
          cleanup
  %35 = extractvalue { ptr, i32 } %34, 0
  store ptr %35, ptr %9, align 8
  %36 = extractvalue { ptr, i32 } %34, 1
  store i32 %36, ptr %10, align 4
  call void @_ZN6icu_7715MaybeStackArrayIcLi30EED2Ev(ptr noundef nonnull align 8 dereferenceable(43) %8) #12
  call void @llvm.lifetime.end.p0(i64 48, ptr %8) #12
  call void @llvm.lifetime.end.p0(i64 4, ptr %7) #12
  br label %59

37:                                               ; preds = %30
  %38 = getelementptr inbounds nuw %"class.icu_77::number::impl::DecNum", ptr %12, i32 0, i32 0
  %39 = invoke noundef ptr @_ZNK6icu_7724MaybeStackHeaderAndArrayI9decNumbercLi34EEcvPS1_Ev(ptr noundef nonnull align 8 dereferenceable(62) %38)
          to label %40 unwind label %33

40:                                               ; preds = %37
  %41 = invoke noundef ptr @_ZNK6icu_7715MaybeStackArrayIcLi30EE8getAliasEv(ptr noundef nonnull align 8 dereferenceable(43) %8)
          to label %42 unwind label %33

42:                                               ; preds = %40
  %43 = invoke ptr @uprv_decNumberToString_77(ptr noundef %39, ptr noundef %41)
          to label %44 unwind label %33

44:                                               ; preds = %42
  %45 = load ptr, ptr %5, align 8, !tbaa !75
  %46 = invoke noundef ptr @_ZNK6icu_7715MaybeStackArrayIcLi30EE8getAliasEv(ptr noundef nonnull align 8 dereferenceable(43) %8)
          to label %47 unwind label %33

47:                                               ; preds = %44
  %48 = invoke noundef ptr @_ZNK6icu_7715MaybeStackArrayIcLi30EE8getAliasEv(ptr noundef nonnull align 8 dereferenceable(43) %8)
          to label %49 unwind label %33

49:                                               ; preds = %47
  %50 = call i64 @strlen(ptr noundef %48) #15
  %51 = trunc i64 %50 to i32
  %52 = load ptr, ptr %45, align 8, !tbaa !77
  %53 = getelementptr inbounds ptr, ptr %52, i64 2
  %54 = load ptr, ptr %53, align 8
  invoke void %54(ptr noundef nonnull align 8 dereferenceable(8) %45, ptr noundef %46, i32 noundef %51)
          to label %55 unwind label %33

55:                                               ; preds = %49
  store i32 0, ptr %11, align 4
  br label %56

56:                                               ; preds = %55, %32
  call void @_ZN6icu_7715MaybeStackArrayIcLi30EED2Ev(ptr noundef nonnull align 8 dereferenceable(43) %8) #12
  call void @llvm.lifetime.end.p0(i64 48, ptr %8) #12
  call void @llvm.lifetime.end.p0(i64 4, ptr %7) #12
  %57 = load i32, ptr %11, align 4
  switch i32 %57, label %64 [
    i32 0, label %58
    i32 1, label %58
  ]

58:                                               ; preds = %17, %56, %56
  ret void

59:                                               ; preds = %33
  %60 = load ptr, ptr %9, align 8
  %61 = load i32, ptr %10, align 4
  %62 = insertvalue { ptr, i32 } poison, ptr %60, 0
  %63 = insertvalue { ptr, i32 } %62, i32 %61, 1
  resume { ptr, i32 } %63

64:                                               ; preds = %56
  unreachable
}