; Function Attrs: mustprogress uwtable
define void @_ZNK6icu_776number4impl6DecNum8toStringERNS_8ByteSinkER10UErrorCode(ptr noundef nonnull readonly align 8 captures(none) dereferenceable(92) %0, ptr noundef nonnull align 8 dereferenceable(8) %1, ptr noundef nonnull readonly align 4 captures(none) dereferenceable(4) %2) local_unnamed_addr #1 align 2 personality ptr @__gxx_personality_v0 {
  %4 = alloca %"class.icu_77::MaybeStackArray.0", align 8
  %5 = load i32, ptr %2, align 4, !tbaa !13
  %6 = icmp slt i32 %5, 1
  br i1 %6, label %7, label %46

7:                                                ; preds = %3
  %8 = load ptr, ptr %0, align 8, !tbaa !24
  %9 = load i32, ptr %8, align 4, !tbaa !39
  %10 = add nsw i32 %9, 14
  call void @llvm.lifetime.start.p0(i64 48, ptr nonnull %4) #14
  %11 = getelementptr inbounds nuw i8, ptr %4, i64 13
  store ptr %11, ptr %4, align 8, !tbaa !40
  %12 = getelementptr inbounds nuw i8, ptr %4, i64 8
  store i32 30, ptr %12, align 8, !tbaa !42
  %13 = getelementptr inbounds nuw i8, ptr %4, i64 12
  store i8 0, ptr %13, align 4, !tbaa !43
  %14 = icmp sgt i32 %9, 16
  br i1 %14, label %15, label %_ZN6icu_7715MaybeStackArrayIcLi30EEC2Ei10UErrorCode.exit

15:                                               ; preds = %7
  %16 = zext nneg i32 %10 to i64
  %17 = invoke noalias ptr @uprv_malloc_77(i64 noundef %16) #15
          to label %.noexc.i unwind label %22

.noexc.i:                                         ; preds = %15
  %.not.i.i = icmp eq ptr %17, null
  br i1 %.not.i.i, label %_ZN6icu_7715MaybeStackArrayIcLi30EEC2Ei10UErrorCode.exit, label %18

18:                                               ; preds = %.noexc.i
  %19 = load i8, ptr %13, align 4, !tbaa !43
  %.not.i.i.i = icmp eq i8 %19, 0
  br i1 %.not.i.i.i, label %_ZN6icu_7715MaybeStackArrayIcLi30EE12releaseArrayEv.exit.i.i, label %20

20:                                               ; preds = %18
  %21 = load ptr, ptr %4, align 8, !tbaa !40
  invoke void @uprv_free_77(ptr noundef %21)
          to label %_ZN6icu_7715MaybeStackArrayIcLi30EE12releaseArrayEv.exit.i.i unwind label %22

_ZN6icu_7715MaybeStackArrayIcLi30EE12releaseArrayEv.exit.i.i: ; preds = %20, %18
  store ptr %17, ptr %4, align 8, !tbaa !40
  store i32 %10, ptr %12, align 8, !tbaa !42
  store i8 1, ptr %13, align 4, !tbaa !43
  br label %_ZN6icu_7715MaybeStackArrayIcLi30EEC2Ei10UErrorCode.exit

common.resume:                                    ; preds = %26, %22
  %common.resume.op = phi { ptr, i32 } [ %23, %22 ], [ %27, %26 ]
  resume { ptr, i32 } %common.resume.op

22:                                               ; preds = %20, %15
  %23 = landingpad { ptr, i32 }
          cleanup
  call void @_ZN6icu_7715MaybeStackArrayIcLi30EED2Ev(ptr noundef nonnull align 8 dereferenceable(43) %4) #14
  br label %common.resume

_ZN6icu_7715MaybeStackArrayIcLi30EEC2Ei10UErrorCode.exit: ; preds = %7, %.noexc.i, %_ZN6icu_7715MaybeStackArrayIcLi30EE12releaseArrayEv.exit.i.i
  %24 = load i32, ptr %2, align 4, !tbaa !13
  %25 = icmp slt i32 %24, 1
  br i1 %25, label %28, label %39

26:                                               ; preds = %32, %28
  %27 = landingpad { ptr, i32 }
          cleanup
  call void @_ZN6icu_7715MaybeStackArrayIcLi30EED2Ev(ptr noundef nonnull align 8 dereferenceable(43) %4) #14
  call void @llvm.lifetime.end.p0(i64 48, ptr nonnull %4) #14
  br label %common.resume

28:                                               ; preds = %_ZN6icu_7715MaybeStackArrayIcLi30EEC2Ei10UErrorCode.exit
  %29 = load ptr, ptr %0, align 8, !tbaa !24
  %30 = load ptr, ptr %4, align 8, !tbaa !40
  %31 = invoke ptr @uprv_decNumberToString_77(ptr noundef %29, ptr noundef %30)
          to label %32 unwind label %26

32:                                               ; preds = %28
  %33 = load ptr, ptr %4, align 8, !tbaa !40
  %34 = call i64 @strlen(ptr noundef nonnull dereferenceable(1) %33) #17
  %35 = trunc i64 %34 to i32
  %36 = load ptr, ptr %1, align 8, !tbaa !44
  %37 = getelementptr inbounds nuw i8, ptr %36, i64 16
  %38 = load ptr, ptr %37, align 8
  invoke void %38(ptr noundef nonnull align 8 dereferenceable(8) %1, ptr noundef nonnull %33, i32 noundef %35)
          to label %39 unwind label %26

39:                                               ; preds = %32, %_ZN6icu_7715MaybeStackArrayIcLi30EEC2Ei10UErrorCode.exit
  %40 = load i8, ptr %13, align 4, !tbaa !43
  %.not.i.i8 = icmp eq i8 %40, 0
  br i1 %.not.i.i8, label %_ZN6icu_7715MaybeStackArrayIcLi30EED2Ev.exit, label %41

41:                                               ; preds = %39
  %42 = load ptr, ptr %4, align 8, !tbaa !40
  invoke void @uprv_free_77(ptr noundef %42)
          to label %_ZN6icu_7715MaybeStackArrayIcLi30EED2Ev.exit unwind label %43

43:                                               ; preds = %41
  %44 = landingpad { ptr, i32 }
          catch ptr null
  %45 = extractvalue { ptr, i32 } %44, 0
  call void @__clang_call_terminate(ptr %45) #16
  unreachable

_ZN6icu_7715MaybeStackArrayIcLi30EED2Ev.exit:     ; preds = %39, %41
  call void @llvm.lifetime.end.p0(i64 48, ptr nonnull %4) #14
  br label %46

46:                                               ; preds = %3, %_ZN6icu_7715MaybeStackArrayIcLi30EED2Ev.exit
  ret void
}